; Function Attrs: nounwind sspstrong uwtable
define internal range(i64 1, 8589934592) i64 @proc_setgid(i64 %0, i64 noundef %1) #1 {
  %3 = alloca i64, align 8
  %.b.i = load i1, ptr @under_gid_switch, align 4
  br i1 %.b.i, label %4, label %check_gid_switch.exit

4:                                                ; preds = %2
  %5 = load i64, ptr @rb_eRuntimeError, align 8, !tbaa !43
  tail call void (i64, ptr, ...) @rb_raise(i64 noundef %5, ptr noundef nonnull @.str.229) #29
  unreachable

check_gid_switch.exit:                            ; preds = %2
  call void @llvm.lifetime.start.p0(i64 8, ptr nonnull %3) #27
  store i64 0, ptr %3, align 8, !tbaa !43
  %6 = call fastcc i32 @obj2gid(i64 noundef %1, ptr noundef %3)
  %7 = load i64, ptr %3, align 8, !tbaa !43
  %.not.i = icmp eq i64 %7, 0
  br i1 %.not.i, label %obj2gid0.exit, label %8

8:                                                ; preds = %check_gid_switch.exit
  %9 = tail call i64 @rb_str_resize(i64 noundef %7, i64 noundef 0) #27
  br label %obj2gid0.exit

obj2gid0.exit:                                    ; preds = %check_gid_switch.exit, %8
  call void @llvm.lifetime.end.p0(i64 8, ptr nonnull %3) #27
  %10 = tail call i32 @setresgid(i32 noundef %6, i32 noundef -1, i32 noundef -1) #27
  %11 = icmp slt i32 %10, 0
  br i1 %11, label %12, label %15

12:                                               ; preds = %obj2gid0.exit
  %13 = tail call ptr @rb_errno_ptr() #27
  %14 = load i32, ptr %13, align 4, !tbaa !60
  tail call void @rb_syserr_fail(i32 noundef %14, ptr noundef null) #29
  unreachable

15:                                               ; preds = %obj2gid0.exit
  %16 = zext i32 %6 to i64
  %17 = shl nuw nsw i64 %16, 1
  %18 = or disjoint i64 %17, 1
  ret i64 %18
}